target datalayout = "e-m:e-p270:32:32-p271:32:32-p272:64:64-i64:64-i128:128-f80:128-n8:16:32:64-S128"
target triple = "x86_64-pc-linux-gnu"

%struct.Kit_Edge_t_ = type { i32 }

; Function Attrs: inlinehint nounwind uwtable
define internal i32 @Kit_EdgeCreate(i32 noundef %0, i32 noundef %1) #2 {
  %3 = alloca %struct.Kit_Edge_t_, align 4
  %4 = alloca i32, align 4
  %5 = alloca i32, align 4
  store i32 %0, ptr %4, align 4, !tbaa !8
  store i32 %1, ptr %5, align 4, !tbaa !8
  store i32 0, ptr %3, align 4
  %6 = load i32, ptr %5, align 4, !tbaa !8
  %7 = load i32, ptr %3, align 4
  %8 = and i32 %6, 1
  %9 = and i32 %7, -2
  %10 = or i32 %9, %8
  store i32 %10, ptr %3, align 4
  %11 = load i32, ptr %4, align 4, !tbaa !8
  %12 = load i32, ptr %3, align 4
  %13 = and i32 %11, 1073741823
  %14 = shl i32 %13, 1
  %15 = and i32 %12, -2147483647
  %16 = or i32 %15, %14
  store i32 %16, ptr %3, align 4
  %17 = getelementptr inbounds nuw %struct.Kit_Edge_t_, ptr %3, i32 0, i32 0
  %18 = load i32, ptr %17, align 4
  ret i32 %18
}

; Function Attrs: inlinehint nounwind uwtable
define internal i32 @Kit_CubeHasLit(i32 noundef %0, i32 noundef %1) #2 {
  %3 = alloca i32, align 4
  %4 = alloca i32, align 4
  store i32 %0, ptr %3, align 4, !tbaa !8
  store i32 %1, ptr %4, align 4, !tbaa !8
  %5 = load i32, ptr %3, align 4, !tbaa !8
  %6 = load i32, ptr %4, align 4, !tbaa !8
  %7 = shl i32 1, %6
  %8 = and i32 %5, %7
  %9 = icmp ugt i32 %8, 0
  %10 = zext i1 %9 to i32
  ret i32 %10
}

; Function Attrs: nounwind uwtable
define i32 @Kit_SopFactorTrivialCube_rec(ptr noundef %0, i32 noundef %1, i32 noundef %2, i32 noundef %3) #0 {
  %5 = alloca %struct.Kit_Edge_t_, align 4
  %6 = alloca ptr, align 8
  %7 = alloca i32, align 4
  %8 = alloca i32, align 4
  %9 = alloca i32, align 4
  %10 = alloca %struct.Kit_Edge_t_, align 4
  %11 = alloca %struct.Kit_Edge_t_, align 4
  %12 = alloca i32, align 4
  %13 = alloca i32, align 4
  %14 = alloca i32, align 4
  %15 = alloca i32, align 4
  %16 = alloca i32, align 4
  %17 = alloca i32, align 4
  %18 = alloca %struct.Kit_Edge_t_, align 4
  %19 = alloca %struct.Kit_Edge_t_, align 4
  store ptr %0, ptr %6, align 8, !tbaa !12
  store i32 %1, ptr %7, align 4, !tbaa !8
  store i32 %2, ptr %8, align 4, !tbaa !8
  store i32 %3, ptr %9, align 4, !tbaa !8
  call void @llvm.lifetime.start.p0(i64 4, ptr %10) #8
  call void @llvm.lifetime.start.p0(i64 4, ptr %11) #8
  call void @llvm.lifetime.start.p0(i64 4, ptr %12) #8
  call void @llvm.lifetime.start.p0(i64 4, ptr %13) #8
  store i32 -1, ptr %13, align 4, !tbaa !8
  call void @llvm.lifetime.start.p0(i64 4, ptr %14) #8
  call void @llvm.lifetime.start.p0(i64 4, ptr %15) #8
  call void @llvm.lifetime.start.p0(i64 4, ptr %16) #8
  store i32 0, ptr %14, align 4, !tbaa !8
  %20 = load i32, ptr %8, align 4, !tbaa !8
  store i32 %20, ptr %12, align 4, !tbaa !8
  br label %21

21:                                               ; preds = %35, %4
  %22 = load i32, ptr %12, align 4, !tbaa !8
  %23 = load i32, ptr %9, align 4, !tbaa !8
  %24 = icmp slt i32 %22, %23
  br i1 %24, label %25, label %38

25:                                               ; preds = %21
  %26 = load i32, ptr %7, align 4, !tbaa !8
  %27 = load i32, ptr %12, align 4, !tbaa !8
  %28 = call i32 @Kit_CubeHasLit(i32 noundef %26, i32 noundef %27)
  %29 = icmp ne i32 %28, 0
  br i1 %29, label %30, label %34

30:                                               ; preds = %25
  %31 = load i32, ptr %12, align 4, !tbaa !8
  store i32 %31, ptr %13, align 4, !tbaa !8
  %32 = load i32, ptr %14, align 4, !tbaa !8
  %33 = add nsw i32 %32, 1
  store i32 %33, ptr %14, align 4, !tbaa !8
  br label %34

34:                                               ; preds = %30, %25
  br label %35

35:                                               ; preds = %34
  %36 = load i32, ptr %12, align 4, !tbaa !8
  %37 = add nsw i32 %36, 1
  store i32 %37, ptr %12, align 4, !tbaa !8
  br label %21, !llvm.loop !21

38:                                               ; preds = %21
  %39 = load i32, ptr %14, align 4, !tbaa !8
  %40 = icmp eq i32 %39, 1
  br i1 %40, label %41, label %48

41:                                               ; preds = %38
  %42 = load i32, ptr %13, align 4, !tbaa !8
  %43 = sdiv i32 %42, 2
  %44 = load i32, ptr %13, align 4, !tbaa !8
  %45 = srem i32 %44, 2
  %46 = call i32 @Kit_EdgeCreate(i32 noundef %43, i32 noundef %45)
  %47 = getelementptr inbounds nuw %struct.Kit_Edge_t_, ptr %5, i32 0, i32 0
  store i32 %46, ptr %47, align 4
  store i32 1, ptr %17, align 4
  br label %96

48:                                               ; preds = %38
  %49 = load i32, ptr %14, align 4, !tbaa !8
  %50 = sdiv i32 %49, 2
  store i32 %50, ptr %15, align 4, !tbaa !8
  %51 = load i32, ptr %14, align 4, !tbaa !8
  %52 = load i32, ptr %15, align 4, !tbaa !8
  %53 = sub nsw i32 %51, %52
  store i32 %53, ptr %16, align 4, !tbaa !8
  store i32 0, ptr %14, align 4, !tbaa !8
  %54 = load i32, ptr %8, align 4, !tbaa !8
  store i32 %54, ptr %12, align 4, !tbaa !8
  br label %55

55:                                               ; preds = %73, %48
  %56 = load i32, ptr %12, align 4, !tbaa !8
  %57 = load i32, ptr %9, align 4, !tbaa !8
  %58 = icmp slt i32 %56, %57
  br i1 %58, label %59, label %76

59:                                               ; preds = %55
  %60 = load i32, ptr %7, align 4, !tbaa !8
  %61 = load i32, ptr %12, align 4, !tbaa !8
  %62 = call i32 @Kit_CubeHasLit(i32 noundef %60, i32 noundef %61)
  %63 = icmp ne i32 %62, 0
  br i1 %63, label %64, label %72

64:                                               ; preds = %59
  %65 = load i32, ptr %14, align 4, !tbaa !8
  %66 = load i32, ptr %15, align 4, !tbaa !8
  %67 = icmp eq i32 %65, %66
  br i1 %67, label %68, label %69

68:                                               ; preds = %64
  br label %76

69:                                               ; preds = %64
  %70 = load i32, ptr %14, align 4, !tbaa !8
  %71 = add nsw i32 %70, 1
  store i32 %71, ptr %14, align 4, !tbaa !8
  br label %72

72:                                               ; preds = %69, %59
  br label %73

73:                                               ; preds = %72
  %74 = load i32, ptr %12, align 4, !tbaa !8
  %75 = add nsw i32 %74, 1
  store i32 %75, ptr %12, align 4, !tbaa !8
  br label %55, !llvm.loop !23

76:                                               ; preds = %68, %55
  call void @llvm.lifetime.start.p0(i64 4, ptr %18) #8
  %77 = load ptr, ptr %6, align 8, !tbaa !12
  %78 = load i32, ptr %7, align 4, !tbaa !8
  %79 = load i32, ptr %8, align 4, !tbaa !8
  %80 = load i32, ptr %12, align 4, !tbaa !8
  %81 = call i32 @Kit_SopFactorTrivialCube_rec(ptr noundef %77, i32 noundef %78, i32 noundef %79, i32 noundef %80)
  %82 = getelementptr inbounds nuw %struct.Kit_Edge_t_, ptr %18, i32 0, i32 0
  store i32 %81, ptr %82, align 4
  call void @llvm.memcpy.p0.p0.i64(ptr align 4 %10, ptr align 4 %18, i64 4, i1 false), !tbaa.struct !14
  call void @llvm.lifetime.end.p0(i64 4, ptr %18) #8
  call void @llvm.lifetime.start.p0(i64 4, ptr %19) #8
  %83 = load ptr, ptr %6, align 8, !tbaa !12
  %84 = load i32, ptr %7, align 4, !tbaa !8
  %85 = load i32, ptr %12, align 4, !tbaa !8
  %86 = load i32, ptr %9, align 4, !tbaa !8
  %87 = call i32 @Kit_SopFactorTrivialCube_rec(ptr noundef %83, i32 noundef %84, i32 noundef %85, i32 noundef %86)
  %88 = getelementptr inbounds nuw %struct.Kit_Edge_t_, ptr %19, i32 0, i32 0
  store i32 %87, ptr %88, align 4
  call void @llvm.memcpy.p0.p0.i64(ptr align 4 %11, ptr align 4 %19, i64 4, i1 false), !tbaa.struct !14
  call void @llvm.lifetime.end.p0(i64 4, ptr %19) #8
  %89 = load ptr, ptr %6, align 8, !tbaa !12
  %90 = getelementptr inbounds nuw %struct.Kit_Edge_t_, ptr %10, i32 0, i32 0
  %91 = load i32, ptr %90, align 4
  %92 = getelementptr inbounds nuw %struct.Kit_Edge_t_, ptr %11, i32 0, i32 0
  %93 = load i32, ptr %92, align 4
  %94 = call i32 @Kit_GraphAddNodeAnd(ptr noundef %89, i32 %91, i32 %93)
  %95 = getelementptr inbounds nuw %struct.Kit_Edge_t_, ptr %5, i32 0, i32 0
  store i32 %94, ptr %95, align 4
  store i32 1, ptr %17, align 4
  br label %96

96:                                               ; preds = %76, %41
  call void @llvm.lifetime.end.p0(i64 4, ptr %16) #8
  call void @llvm.lifetime.end.p0(i64 4, ptr %15) #8
  call void @llvm.lifetime.end.p0(i64 4, ptr %14) #8
  call void @llvm.lifetime.end.p0(i64 4, ptr %13) #8
  call void @llvm.lifetime.end.p0(i64 4, ptr %12) #8
  call void @llvm.lifetime.end.p0(i64 4, ptr %11) #8
  call void @llvm.lifetime.end.p0(i64 4, ptr %10) #8
  %97 = getelementptr inbounds nuw %struct.Kit_Edge_t_, ptr %5, i32 0, i32 0
  %98 = load i32, ptr %97, align 4
  ret i32 %98
}