; Function Attrs: nounwind uwtable
define i32 @Kit_SopFactorTrivialCube_rec(ptr noundef %0, i32 noundef %1, i32 noundef %2, i32 noundef %3) local_unnamed_addr #0 {
  %5 = icmp slt i32 %2, %3
  br i1 %5, label %.lr.ph, label %._crit_edge50

.lr.ph:                                           ; preds = %4, %.lr.ph
  %.044 = phi i32 [ %9, %.lr.ph ], [ %2, %4 ]
  %.03543 = phi i32 [ %spec.select41, %.lr.ph ], [ -1, %4 ]
  %.03742 = phi i32 [ %spec.select, %.lr.ph ], [ 0, %4 ]
  %6 = shl nuw i32 1, %.044
  %7 = and i32 %6, %1
  %.not40 = icmp ne i32 %7, 0
  %8 = zext i1 %.not40 to i32
  %spec.select = add nuw nsw i32 %.03742, %8
  %spec.select41 = select i1 %.not40, i32 %.044, i32 %.03543
  %9 = add nsw i32 %.044, 1
  %exitcond.not = icmp eq i32 %9, %3
  br i1 %exitcond.not, label %._crit_edge, label %.lr.ph, !llvm.loop !17

._crit_edge:                                      ; preds = %.lr.ph
  %10 = icmp eq i32 %spec.select, 1
  br i1 %10, label %common.ret, label %16

common.ret:                                       ; preds = %._crit_edge
  %11 = sdiv i32 %spec.select41, 2
  %12 = and i32 %spec.select41, 1
  %13 = shl nsw i32 %11, 1
  %14 = and i32 %13, 2147483646
  %15 = or disjoint i32 %14, %12
  br label %common.ret59

16:                                               ; preds = %._crit_edge
  %17 = lshr i32 %spec.select, 1
  br label %.lr.ph49

.lr.ph49:                                         ; preds = %16, %24
  %.147 = phi i32 [ %25, %24 ], [ %2, %16 ]
  %.246 = phi i32 [ %.3, %24 ], [ 0, %16 ]
  %18 = shl nuw i32 1, %.147
  %19 = and i32 %18, %1
  %.not = icmp eq i32 %19, 0
  br i1 %.not, label %24, label %20

20:                                               ; preds = %.lr.ph49
  %21 = icmp eq i32 %.246, %17
  br i1 %21, label %._crit_edge50, label %22

22:                                               ; preds = %20
  %23 = add nsw i32 %.246, 1
  br label %24

24:                                               ; preds = %.lr.ph49, %22
  %.3 = phi i32 [ %23, %22 ], [ %.246, %.lr.ph49 ]
  %25 = add i32 %.147, 1
  %exitcond54.not = icmp eq i32 %25, %3
  br i1 %exitcond54.not, label %._crit_edge50, label %.lr.ph49, !llvm.loop !19

common.ret59:                                     ; preds = %._crit_edge50, %common.ret
  %common.ret59.op = phi i32 [ %15, %common.ret ], [ %28, %._crit_edge50 ]
  ret i32 %common.ret59.op

._crit_edge50:                                    ; preds = %24, %20, %4
  %.1.lcssa = phi i32 [ %2, %4 ], [ %.147, %20 ], [ %3, %24 ]
  %26 = tail call i32 @Kit_SopFactorTrivialCube_rec(ptr noundef %0, i32 noundef %1, i32 noundef %2, i32 noundef %.1.lcssa)
  %27 = tail call i32 @Kit_SopFactorTrivialCube_rec(ptr noundef %0, i32 noundef %1, i32 noundef %.1.lcssa, i32 noundef %3)
  %28 = tail call i32 @Kit_GraphAddNodeAnd(ptr noundef %0, i32 %26, i32 %27) #8
  br label %common.ret59
}